target datalayout = "e-m:e-p270:32:32-p271:32:32-p272:64:64-i64:64-i128:128-f80:128-n8:16:32:64-S128"
target triple = "x86_64-pc-linux-gnu"

%"class.lean::name" = type { %"class.lean::object_ref" }
%"class.lean::object_ref" = type { ptr }

@.str = private unnamed_addr constant [8 x i8] c"_lambda\00", align 1

; Function Attrs: mustprogress uwtable
define hidden void @_ZN4lean22mk_lambda_lifting_nameERKNS_4nameEj(ptr dead_on_unwind noalias writable sret(%"class.lean::name") align 8 %0, ptr noundef nonnull align 8 dereferenceable(8) %1, i32 noundef %2) #0 personality ptr @__gxx_personality_v0 {
  %4 = alloca ptr, align 8
  %5 = alloca ptr, align 8
  %6 = alloca i32, align 4
  %7 = alloca %"class.lean::name", align 8
  %8 = alloca ptr, align 8
  %9 = alloca i32, align 4
  store ptr %0, ptr %4, align 8
  store ptr %1, ptr %5, align 8, !tbaa !3
  store i32 %2, ptr %6, align 4, !tbaa !8
  call void @llvm.lifetime.start.p0(i64 8, ptr %7) #16
  %10 = load ptr, ptr %5, align 8, !tbaa !3
  call void @_ZN4lean4nameC1ERKS0_PKc(ptr noundef nonnull align 8 dereferenceable(8) %7, ptr noundef nonnull align 8 dereferenceable(8) %10, ptr noundef @.str)
  %11 = load i32, ptr %6, align 4, !tbaa !8
  invoke void @_ZNK4lean4name12append_afterEj(ptr dead_on_unwind writable sret(%"class.lean::name") align 8 %0, ptr noundef nonnull align 8 dereferenceable(8) %7, i32 noundef %11)
          to label %12 unwind label %13

12:                                               ; preds = %3
  call void @_ZN4lean10object_refD2Ev(ptr noundef nonnull align 8 dereferenceable(8) %7) #16
  call void @llvm.lifetime.end.p0(i64 8, ptr %7) #16
  ret void

13:                                               ; preds = %3
  %14 = landingpad { ptr, i32 }
          cleanup
  %15 = extractvalue { ptr, i32 } %14, 0
  store ptr %15, ptr %8, align 8
  %16 = extractvalue { ptr, i32 } %14, 1
  store i32 %16, ptr %9, align 4
  call void @_ZN4lean10object_refD2Ev(ptr noundef nonnull align 8 dereferenceable(8) %7) #16
  call void @llvm.lifetime.end.p0(i64 8, ptr %7) #16
  br label %17

17:                                               ; preds = %13
  %18 = load ptr, ptr %8, align 8
  %19 = load i32, ptr %9, align 4
  %20 = insertvalue { ptr, i32 } poison, ptr %18, 0
  %21 = insertvalue { ptr, i32 } %20, i32 %19, 1
  resume { ptr, i32 } %21
}