; Function Attrs: mustprogress uwtable
define hidden void @_ZN4lean22mk_lambda_lifting_nameERKNS_4nameEj(ptr dead_on_unwind noalias writable sret(%"class.lean::name") align 8 %0, ptr noundef nonnull align 8 dereferenceable(8) %1, i32 noundef %2) local_unnamed_addr #0 personality ptr @__gxx_personality_v0 {
  %4 = alloca %"class.lean::name", align 8
  call void @llvm.lifetime.start.p0(i64 8, ptr nonnull %4) #15
  call void @_ZN4lean4nameC1ERKS0_PKc(ptr noundef nonnull align 8 dereferenceable(8) %4, ptr noundef nonnull align 8 dereferenceable(8) %1, ptr noundef nonnull @.str)
  invoke void @_ZNK4lean4name12append_afterEj(ptr dead_on_unwind writable sret(%"class.lean::name") align 8 %0, ptr noundef nonnull align 8 dereferenceable(8) %4, i32 noundef %2)
          to label %5 unwind label %19

5:                                                ; preds = %3
  %6 = load ptr, ptr %4, align 8, !tbaa !3
  %7 = ptrtoint ptr %6 to i64
  %8 = and i64 %7, 1
  %.not.i.i = icmp eq i64 %8, 0
  br i1 %.not.i.i, label %9, label %_ZN4lean10object_refD2Ev.exit

9:                                                ; preds = %5
  %10 = load i32, ptr %6, align 4, !tbaa !8
  %11 = icmp sgt i32 %10, 1
  br i1 %11, label %12, label %14, !prof !11

12:                                               ; preds = %9
  %13 = add nsw i32 %10, -1
  store i32 %13, ptr %6, align 4, !tbaa !8
  br label %_ZN4lean10object_refD2Ev.exit

14:                                               ; preds = %9
  %.not.i.i.i = icmp eq i32 %10, 0
  br i1 %.not.i.i.i, label %_ZN4lean10object_refD2Ev.exit, label %15

15:                                               ; preds = %14
  invoke void @lean_dec_ref_cold(ptr noundef nonnull %6)
          to label %_ZN4lean10object_refD2Ev.exit unwind label %16

16:                                               ; preds = %15
  %17 = landingpad { ptr, i32 }
          catch ptr null
  %18 = extractvalue { ptr, i32 } %17, 0
  call void @__clang_call_terminate(ptr %18) #16
  unreachable

_ZN4lean10object_refD2Ev.exit:                    ; preds = %5, %12, %14, %15
  call void @llvm.lifetime.end.p0(i64 8, ptr nonnull %4) #15
  ret void

19:                                               ; preds = %3
  %20 = landingpad { ptr, i32 }
          cleanup
  call void @_ZN4lean10object_refD2Ev(ptr noundef nonnull align 8 dereferenceable(8) %4) #15
  call void @llvm.lifetime.end.p0(i64 8, ptr nonnull %4) #15
  resume { ptr, i32 } %20
}